	.file	"define.c"
	.text
	.globl	main
	.type	main, @function
main:
.LFB0:
	.cfi_startproc
	endbr64
	pushq	%rbp
	.cfi_def_cfa_offset 16
	.cfi_offset 6, -16
	movq	%rsp, %rbp
	.cfi_def_cfa_register 6
	subq	$112, %rsp
	movq	%fs:40, %rax
	movq	%rax, -8(%rbp)
	xorl	%eax, %eax
	leaq	-112(%rbp), %rax
	movq	%rax, %rdi
	call	input_arr
	movl	$10, %edi
	call	putchar@PLT
	leaq	-112(%rbp), %rax
	movq	%rax, %rdi
	call	display
	movl	$0, %eax
	movq	-8(%rbp), %rdx
	xorq	%fs:40, %rdx
	je	.L3
	call	__stack_chk_fail@PLT
.L3:
	leave
	.cfi_def_cfa 7, 8
	ret
	.cfi_endproc
.LFE0:
	.size	main, .-main
	.section	.rodata
	.align 8
.LC0:
	.string	"Enter elements of sq array size 5:"
.LC1:
	.string	"%d"
	.text
	.globl	input_arr
	.type	input_arr, @function
input_arr:
.LFB1:
	.cfi_startproc
	endbr64
	pushq	%rbp
	.cfi_def_cfa_offset 16
	.cfi_offset 6, -16
	movq	%rsp, %rbp
	.cfi_def_cfa_register 6
	subq	$32, %rsp
	movq	%rdi, -24(%rbp)
	leaq	.LC0(%rip), %rdi
	call	puts@PLT
	movl	$0, -8(%rbp)
	jmp	.L5
.L8:
	movl	$0, -4(%rbp)
	jmp	.L6
.L7:
	movl	-8(%rbp), %eax
	movslq	%eax, %rdx
	movq	%rdx, %rax
	salq	$2, %rax
	addq	%rdx, %rax
	salq	$2, %rax
	movq	%rax, %rdx
	movq	-24(%rbp), %rax
	addq	%rax, %rdx
	movl	-4(%rbp), %eax
	cltq
	salq	$2, %rax
	addq	%rdx, %rax
	movq	%rax, %rsi
	leaq	.LC1(%rip), %rdi
	movl	$0, %eax
	call	__isoc99_scanf@PLT
 ret
	addl	$1, -4(%rbp)
.L6:
	cmpl	$4, -4(%rbp)
	jle	.L7
	addl	$1, -8(%rbp)
.L5:
	cmpl	$4, -8(%rbp)
	jle	.L8
	nop
	nop
	leave
	.cfi_def_cfa 7, 8
	ret
	.cfi_endproc
.LFE1:
	.size	input_arr, .-input_arr
	.section	.rodata
.LC2:
	.string	"%d "
	.text
	.globl	display
	.type	display, @function
display:
.LFB2:
	.cfi_startproc
	endbr64
	pushq	%rbp
	.cfi_def_cfa_offset 16
	.cfi_offset 6, -16
	movq	%rsp, %rbp
	.cfi_def_cfa_register 6
	subq	$32, %rsp
	movq	%rdi, -24(%rbp)
	movl	$0, -8(%rbp)
	jmp	.L10
.L13:
	movl	$0, -4(%rbp)
	jmp	.L11
.L12:
	movl	-8(%rbp), %eax
	movslq	%eax, %rdx
	movq	%rdx, %rax
	salq	$2, %rax
	addq	%rdx, %rax
	salq	$2, %rax
	movq	%rax, %rdx
	movq	-24(%rbp), %rax
	addq	%rax, %rdx
	movl	-4(%rbp), %eax
	cltq
	movl	(%rdx,%rax,4), %eax
	movl	%eax, %esi
	leaq	.LC2(%rip), %rdi
	movl	$0, %eax
	call	printf@PLT
	addl	$1, -4(%rbp)
.L11:
	cmpl	$4, -4(%rbp)
	jle	.L12
	movl	$10, %edi
	call	putchar@PLT
	addl	$1, -8(%rbp)
.L10:
	cmpl	$4, -8(%rbp)
	jle	.L13
	nop
	nop
	leave
	.cfi_def_cfa 7, 8
	ret
	.cfi_endproc
.LFE2:
	.size	display, .-display
	.ident	"GCC: (Ubuntu 9.4.0-1ubuntu1~20.04.2) 9.4.0"
	.section	.note.GNU-stack,"",@progbits
	.section	.note.gnu.property,"a"
	.align 8
	.long	 1f - 0f
	.long	 4f - 1f
	.long	 5
0:
	.string	 "GNU"
1:
	.align 8
	.long	 0xc0000002
	.long	 3f - 2f
2:
	.long	 0x3
3:
	.align 8
4:
